; Function Attrs: mustprogress uwtable
define hidden void @_ZN2cv12cpu_baseline25bilateralFilterInvoker_8uERNS_3MatERKS1_iiPiPfS6_(ptr noundef nonnull align 8 dereferenceable(96) %0, ptr noundef nonnull align 8 dereferenceable(96) %1, i32 noundef %2, i32 noundef %3, ptr noundef %4, ptr noundef %5, ptr noundef %6) local_unnamed_addr #0 personality ptr @__gxx_personality_v0 {
  %8 = alloca %"class.cv::utils::trace::details::Region", align 8
  %9 = alloca %"class.cv::cpu_baseline::(anonymous namespace)::BilateralFilter_8u_Invoker", align 8
  %10 = alloca %"class.cv::Range", align 4
  call void @_ZN2cv5utils5trace7details6RegionC1ERKNS3_21LocationStaticStorageE(ptr noundef nonnull align 8 dereferenceable(12) %8, ptr noundef nonnull align 8 dereferenceable(32) @_ZZN2cv12cpu_baseline25bilateralFilterInvoker_8uERNS_3MatERKS1_iiPiPfS6_E25__cv_trace_location_fn554)
  store ptr getelementptr inbounds inrange(-16, 24) (i8, ptr @_ZTVN2cv12cpu_baseline12_GLOBAL__N_126BilateralFilter_8u_InvokerE, i64 16), ptr %9, align 8
  %11 = getelementptr inbounds i8, ptr %9, i64 8
  store ptr %1, ptr %11, align 8
  %12 = getelementptr inbounds i8, ptr %9, i64 16
  store ptr %0, ptr %12, align 8
  %13 = getelementptr inbounds i8, ptr %9, i64 24
  store i32 %2, ptr %13, align 8
  %14 = getelementptr inbounds i8, ptr %9, i64 28
  store i32 %3, ptr %14, align 4
  %15 = getelementptr inbounds i8, ptr %9, i64 32
  store ptr %4, ptr %15, align 8
  %16 = getelementptr inbounds i8, ptr %9, i64 40
  store ptr %5, ptr %16, align 8
  %17 = getelementptr inbounds i8, ptr %9, i64 48
  store ptr %6, ptr %17, align 8
  %18 = getelementptr inbounds i8, ptr %0, i64 8
  %19 = load i32, ptr %18, align 8
  store i32 0, ptr %10, align 4
  %20 = getelementptr inbounds i8, ptr %10, i64 4
  store i32 %19, ptr %20, align 4
  %21 = invoke noundef i64 @_ZNK2cv3Mat5totalEv(ptr noundef nonnull align 8 dereferenceable(96) %0)
          to label %22 unwind label %32

22:                                               ; preds = %7
  %23 = uitofp i64 %21 to double
  %24 = fmul double %23, 0x3EF0000000000000
  invoke void @_ZN2cv13parallel_for_ERKNS_5RangeERKNS_16ParallelLoopBodyEd(ptr noundef nonnull align 4 dereferenceable(8) %10, ptr noundef nonnull align 8 dereferenceable(8) %9, double noundef %24)
          to label %25 unwind label %32

25:                                               ; preds = %22
  call void @_ZN2cv16ParallelLoopBodyD2Ev(ptr noundef nonnull align 8 dereferenceable(8) %9) #15
  %26 = getelementptr inbounds i8, ptr %8, i64 8
  %27 = load i32, ptr %26, align 8
  %.not.i = icmp eq i32 %27, 0
  br i1 %.not.i, label %_ZN2cv5utils5trace7details6RegionD2Ev.exit, label %28

28:                                               ; preds = %25
  invoke void @_ZN2cv5utils5trace7details6Region7destroyEv(ptr noundef nonnull align 8 dereferenceable(12) %8)
          to label %_ZN2cv5utils5trace7details6RegionD2Ev.exit unwind label %29

29:                                               ; preds = %28
  %30 = landingpad { ptr, i32 }
          catch ptr null
  %31 = extractvalue { ptr, i32 } %30, 0
  call void @__clang_call_terminate(ptr %31) #16
  unreachable

_ZN2cv5utils5trace7details6RegionD2Ev.exit:       ; preds = %25, %28
  ret void

32:                                               ; preds = %22, %7
  %33 = landingpad { ptr, i32 }
          cleanup
  call void @_ZN2cv16ParallelLoopBodyD2Ev(ptr noundef nonnull align 8 dereferenceable(8) %9) #15
  call void @_ZN2cv5utils5trace7details6RegionD2Ev(ptr noundef nonnull align 8 dereferenceable(12) %8) #15
  resume { ptr, i32 } %33
}